; Function Attrs: nounwind uwtable
define ptr @l___private_Lean_Data_Lsp_Window_0__toJsonMessageActionItem____x40_Lean_Data_Lsp_Window___hyg_376_(ptr noundef %0) #1 {
  tail call void @lean_inc_heartbeat() #6
  %2 = tail call noalias ptr @mi_malloc_small(i64 noundef 16) #6
  %3 = icmp eq ptr %2, null
  br i1 %3, label %4, label %lean_alloc_ctor.exit

4:                                                ; preds = %1
  tail call void @lean_internal_panic_out_of_memory() #7
  unreachable

lean_alloc_ctor.exit:                             ; preds = %1
  %5 = getelementptr inbounds nuw i8, ptr %2, i64 4
  store i32 1, ptr %2, align 4, !tbaa !4
  store i32 50397200, ptr %5, align 4
  %6 = getelementptr inbounds nuw i8, ptr %2, i64 8
  store ptr %0, ptr %6, align 8, !tbaa !10
  %7 = load ptr, ptr @l___private_Lean_Data_Lsp_Window_0__fromJsonMessageActionItem____x40_Lean_Data_Lsp_Window___hyg_309____closed__1, align 8, !tbaa !10
  tail call void @lean_inc_heartbeat() #6
  %8 = tail call noalias ptr @mi_malloc_small(i64 noundef 24) #6
  %9 = icmp eq ptr %8, null
  br i1 %9, label %10, label %lean_alloc_ctor.exit18

10:                                               ; preds = %lean_alloc_ctor.exit
  tail call void @lean_internal_panic_out_of_memory() #7
  unreachable

lean_alloc_ctor.exit18:                           ; preds = %lean_alloc_ctor.exit
  %11 = getelementptr inbounds nuw i8, ptr %8, i64 4
  store i32 1, ptr %8, align 4, !tbaa !4
  store i32 131096, ptr %11, align 4
  %12 = getelementptr inbounds nuw i8, ptr %8, i64 8
  store ptr %7, ptr %12, align 8, !tbaa !10
  %13 = getelementptr inbounds nuw i8, ptr %8, i64 16
  store ptr %2, ptr %13, align 8, !tbaa !10
  tail call void @lean_inc_heartbeat() #6
  %14 = tail call noalias ptr @mi_malloc_small(i64 noundef 24) #6
  %15 = icmp eq ptr %14, null
  br i1 %15, label %16, label %lean_alloc_ctor.exit19

16:                                               ; preds = %lean_alloc_ctor.exit18
  tail call void @lean_internal_panic_out_of_memory() #7
  unreachable

lean_alloc_ctor.exit19:                           ; preds = %lean_alloc_ctor.exit18
  %17 = getelementptr inbounds nuw i8, ptr %14, i64 4
  store i32 1, ptr %14, align 4, !tbaa !4
  store i32 16908312, ptr %17, align 4
  %18 = getelementptr inbounds nuw i8, ptr %14, i64 8
  store ptr %8, ptr %18, align 8, !tbaa !10
  %19 = getelementptr inbounds nuw i8, ptr %14, i64 16
  store ptr inttoptr (i64 1 to ptr), ptr %19, align 8, !tbaa !10
  tail call void @lean_inc_heartbeat() #6
  %20 = tail call noalias ptr @mi_malloc_small(i64 noundef 24) #6
  %21 = icmp eq ptr %20, null
  br i1 %21, label %22, label %lean_alloc_ctor.exit20

22:                                               ; preds = %lean_alloc_ctor.exit19
  tail call void @lean_internal_panic_out_of_memory() #7
  unreachable

lean_alloc_ctor.exit20:                           ; preds = %lean_alloc_ctor.exit19
  %23 = getelementptr inbounds nuw i8, ptr %20, i64 4
  store i32 1, ptr %20, align 4, !tbaa !4
  store i32 16908312, ptr %23, align 4
  %24 = getelementptr inbounds nuw i8, ptr %20, i64 8
  store ptr %14, ptr %24, align 8, !tbaa !10
  %25 = getelementptr inbounds nuw i8, ptr %20, i64 16
  store ptr inttoptr (i64 1 to ptr), ptr %25, align 8, !tbaa !10
  %26 = load ptr, ptr @l___private_Lean_Data_Lsp_Window_0__toJsonShowMessageParams____x40_Lean_Data_Lsp_Window___hyg_245____closed__1, align 8, !tbaa !10
  %27 = tail call ptr @l_List_flatMapTR_go___at___private_Lean_Data_Lsp_Window_0__toJsonShowMessageParams____x40_Lean_Data_Lsp_Window___hyg_245____spec__1(ptr noundef nonnull %20, ptr noundef %26)
  %28 = tail call ptr @l_Lean_Json_mkObj(ptr noundef %27) #6
  ret ptr %28
}